; Function Attrs: mustprogress uwtable
define i16 @_ZN7Imf_3_410round12logEN9Imath_3_24halfE(i16 %0) local_unnamed_addr #5 personality ptr @__gxx_personality_v0 {
  %2 = load ptr, ptr @imath_half_to_float_table, align 8, !tbaa !39
  %3 = zext i16 %0 to i64
  %4 = getelementptr inbounds nuw %union.imath_half_uif, ptr %2, i64 %3
  %5 = load float, ptr %4, align 4, !tbaa !41
  %6 = fcmp ugt float %5, 0.000000e+00
  br i1 %6, label %7, label %_ZN9Imath_3_24halfC2Ef.exit

7:                                                ; preds = %1
  %8 = fdiv float %5, 0x3FC6A09E60000000
  %9 = tail call noundef float @logf(float noundef %8) #9, !tbaa !42
  %10 = fpext float %9 to double
  %11 = fmul double %10, 2.000000e+02
  %12 = fdiv double %11, 0x3FE62E42FEFA39EF
  %13 = fadd double %12, 2.000500e+03
  %14 = fptosi double %13 to i32
  %spec.store.select = tail call i32 @llvm.smin.i32(i32 %14, i32 4095)
  %spec.store.select1 = tail call i32 @llvm.smax.i32(i32 %spec.store.select, i32 1)
  %15 = add nsw i32 %spec.store.select1, -2000
  %16 = sitofp i32 %15 to double
  %17 = fdiv double %16, 2.000000e+02
  %exp2 = tail call double @exp2(double %17)
  %18 = fmul double %exp2, 0x3FC6A09E60000000
  %19 = fptrunc double %18 to float
  %20 = bitcast float %19 to i32
  %21 = tail call float @llvm.fabs.f32(float %19)
  %22 = bitcast float %21 to i32
  %23 = lshr i32 %20, 16
  %24 = trunc nuw i32 %23 to i16
  %25 = and i16 %24, -32768
  %26 = icmp samesign ugt i32 %22, 947912703
  br i1 %26, label %27, label %53

27:                                               ; preds = %7
  %28 = icmp samesign ugt i32 %22, 2139095039
  br i1 %28, label %29, label %40, !prof !43

29:                                               ; preds = %27
  %30 = or disjoint i16 %25, 31744
  %31 = icmp eq i32 %22, 2139095040
  br i1 %31, label %_ZN9Imath_3_24halfC2Ef.exit, label %32

32:                                               ; preds = %29
  %33 = lshr i32 %22, 13
  %34 = and i32 %33, 1023
  %35 = icmp eq i32 %34, 0
  %36 = zext i1 %35 to i16
  %37 = trunc nuw nsw i32 %34 to i16
  %38 = or i16 %37, %36
  %39 = or disjoint i16 %38, %30
  br label %_ZN9Imath_3_24halfC2Ef.exit

40:                                               ; preds = %27
  %41 = icmp samesign ugt i32 %22, 1199566847
  br i1 %41, label %42, label %44, !prof !43

42:                                               ; preds = %40
  %43 = or disjoint i16 %25, 31744
  br label %_ZN9Imath_3_24halfC2Ef.exit

44:                                               ; preds = %40
  %45 = add nuw nsw i32 %22, 134221823
  %46 = lshr i32 %22, 13
  %47 = and i32 %46, 1
  %48 = add nuw nsw i32 %45, %47
  %49 = lshr i32 %48, 13
  %50 = and i32 %23, 32768
  %51 = or i32 %49, %50
  %52 = trunc i32 %51 to i16
  br label %_ZN9Imath_3_24halfC2Ef.exit

53:                                               ; preds = %7
  %54 = icmp samesign ult i32 %22, 855638017
  br i1 %54, label %_ZN9Imath_3_24halfC2Ef.exit, label %55

55:                                               ; preds = %53
  %56 = lshr i32 %22, 23
  %57 = sub nuw nsw i32 126, %56
  %58 = and i32 %22, 8388607
  %59 = or disjoint i32 %58, 8388608
  %60 = add nsw i32 %56, -94
  %61 = shl i32 %59, %60
  %62 = lshr i32 %59, %57
  %63 = and i32 %23, 32768
  %64 = or i32 %62, %63
  %65 = trunc nuw i32 %64 to i16
  %66 = icmp ugt i32 %61, -2147483648
  br i1 %66, label %70, label %67

67:                                               ; preds = %55
  %68 = icmp ne i32 %61, -2147483648
  %69 = and i32 %62, 1
  %.not.i.i = icmp eq i32 %69, 0
  %or.cond.i.i = select i1 %68, i1 true, i1 %.not.i.i
  br i1 %or.cond.i.i, label %_ZN9Imath_3_24halfC2Ef.exit, label %70

70:                                               ; preds = %67, %55
  %71 = add nuw i16 %65, 1
  br label %_ZN9Imath_3_24halfC2Ef.exit

_ZN9Imath_3_24halfC2Ef.exit:                      ; preds = %70, %67, %53, %44, %42, %32, %29, %1
  %.sroa.06.0 = phi i16 [ 0, %1 ], [ %39, %32 ], [ %43, %42 ], [ %52, %44 ], [ %30, %29 ], [ %25, %53 ], [ %71, %70 ], [ %65, %67 ]
  ret i16 %.sroa.06.0
}